; Function Attrs: nounwind uwtable
define internal range(i32 -1, 1) i32 @np_uint(ptr noundef readonly captures(none) %0, ptr noundef writeonly captures(none) %1, ptr noundef %2, ptr noundef readonly captures(none) %3) #0 {
  %5 = alloca i64, align 8
  call void @llvm.lifetime.start.p0(i64 8, ptr nonnull %5) #7
  %6 = call fastcc i32 @get_ulong(ptr noundef %0, ptr noundef %2, ptr noundef %5)
  %7 = icmp slt i32 %6, 0
  br i1 %7, label %8, label %22

8:                                                ; preds = %4
  %9 = load ptr, ptr @PyExc_OverflowError, align 8, !tbaa !17
  %10 = tail call i32 @PyErr_ExceptionMatches(ptr noundef %9) #7
  %.not = icmp eq i32 %10, 0
  br i1 %.not, label %38, label %11

11:                                               ; preds = %8
  %12 = getelementptr inbounds nuw i8, ptr %3, i64 8
  %13 = load i64, ptr %12, align 8, !tbaa !67
  %14 = shl i64 %13, 3
  %15 = sub i64 64, %14
  %16 = getelementptr inbounds nuw i8, ptr %0, i64 24
  %17 = load ptr, ptr %16, align 8, !tbaa !16
  %18 = load i8, ptr %3, align 8, !tbaa !49
  %19 = sext i8 %18 to i32
  %20 = lshr i64 -1, %15
  %21 = tail call ptr (ptr, ptr, ...) @PyErr_Format(ptr noundef %17, ptr noundef nonnull @.str.51, i32 noundef %19, i64 noundef %20) #7
  br label %38

22:                                               ; preds = %4
  %23 = load i64, ptr %5, align 8, !tbaa !81
  %24 = icmp ugt i64 %23, 4294967295
  br i1 %24, label %25, label %36

25:                                               ; preds = %22
  %26 = getelementptr inbounds nuw i8, ptr %3, i64 8
  %27 = load i64, ptr %26, align 8, !tbaa !67
  %28 = shl i64 %27, 3
  %29 = sub i64 64, %28
  %30 = getelementptr inbounds nuw i8, ptr %0, i64 24
  %31 = load ptr, ptr %30, align 8, !tbaa !16
  %32 = load i8, ptr %3, align 8, !tbaa !49
  %33 = sext i8 %32 to i32
  %34 = lshr i64 -1, %29
  %35 = tail call ptr (ptr, ptr, ...) @PyErr_Format(ptr noundef %31, ptr noundef nonnull @.str.51, i32 noundef %33, i64 noundef %34) #7
  br label %38

36:                                               ; preds = %22
  %37 = trunc nuw i64 %23 to i32
  store i32 %37, ptr %1, align 1
  br label %38

38:                                               ; preds = %8, %36, %25, %11
  %.0 = phi i32 [ -1, %11 ], [ -1, %25 ], [ 0, %36 ], [ -1, %8 ]
  call void @llvm.lifetime.end.p0(i64 8, ptr nonnull %5) #7
  ret i32 %.0
}